; Function Attrs: null_pointer_is_valid sspstrong uwtable
define internal range(i32 0, 65536) i32 @get_netflow_pdu_len(ptr readnone captures(none) %0, ptr noundef %1, i32 noundef %2, ptr readnone captures(none) %3) #0 {
  %5 = tail call zeroext i16 @tvb_get_ntohs(ptr noundef %1, i32 noundef %2)
  %6 = icmp eq i16 %5, 10
  br i1 %6, label %7, label %10

7:                                                ; preds = %4
  %8 = add i32 %2, 2
  %9 = tail call zeroext i16 @tvb_get_ntohs(ptr noundef %1, i32 noundef %8)
  br label %13

10:                                               ; preds = %4
  %11 = tail call i32 @tvb_reported_length(ptr noundef %1)
  %12 = trunc i32 %11 to i16
  br label %13

13:                                               ; preds = %10, %7
  %.0 = phi i16 [ %9, %7 ], [ %12, %10 ]
  %14 = zext i16 %.0 to i32
  ret i32 %14
}